target datalayout = "e-m:e-p270:32:32-p271:32:32-p272:64:64-i64:64-i128:128-f80:128-n8:16:32:64-S128"
target triple = "x86_64-pc-linux-gnu"

%"class.YAML::Scanner" = type { %"class.YAML::Stream", %"class.std::queue", i8, i8, i8, i8, i8, %"class.std::stack", %"class.std::stack.12", %"class.YAML::ptr_vector", %"class.std::stack.22" }
%"class.YAML::Stream" = type { ptr, %"struct.YAML::Mark", i32, i8, %"class.std::deque", ptr, i64, i64 }
%"struct.YAML::Mark" = type { i32, i32, i32 }
%"class.std::deque" = type { %"class.std::_Deque_base" }
%"class.std::_Deque_base" = type { %"struct.std::_Deque_base<char, std::allocator<char>>::_Deque_impl" }
%"struct.std::_Deque_base<char, std::allocator<char>>::_Deque_impl" = type { %"struct.std::_Deque_base<char, std::allocator<char>>::_Deque_impl_data" }
%"struct.std::_Deque_base<char, std::allocator<char>>::_Deque_impl_data" = type { ptr, i64, %"struct.std::_Deque_iterator", %"struct.std::_Deque_iterator" }
%"struct.std::_Deque_iterator" = type { ptr, ptr, ptr, ptr }
%"class.std::queue" = type { %"class.std::deque.0" }
%"class.std::deque.0" = type { %"class.std::_Deque_base.1" }
%"class.std::_Deque_base.1" = type { %"struct.std::_Deque_base<YAML::Token, std::allocator<YAML::Token>>::_Deque_impl" }
%"struct.std::_Deque_base<YAML::Token, std::allocator<YAML::Token>>::_Deque_impl" = type { %"struct.std::_Deque_base<YAML::Token, std::allocator<YAML::Token>>::_Deque_impl_data" }
%"struct.std::_Deque_base<YAML::Token, std::allocator<YAML::Token>>::_Deque_impl_data" = type { ptr, i64, %"struct.std::_Deque_iterator.5", %"struct.std::_Deque_iterator.5" }
%"struct.std::_Deque_iterator.5" = type { ptr, ptr, ptr, ptr }
%"class.std::stack" = type { %"class.std::deque.6" }
%"class.std::deque.6" = type { %"class.std::_Deque_base.7" }
%"class.std::_Deque_base.7" = type { %"struct.std::_Deque_base<YAML::Scanner::SimpleKey, std::allocator<YAML::Scanner::SimpleKey>>::_Deque_impl" }
%"struct.std::_Deque_base<YAML::Scanner::SimpleKey, std::allocator<YAML::Scanner::SimpleKey>>::_Deque_impl" = type { %"struct.std::_Deque_base<YAML::Scanner::SimpleKey, std::allocator<YAML::Scanner::SimpleKey>>::_Deque_impl_data" }
%"struct.std::_Deque_base<YAML::Scanner::SimpleKey, std::allocator<YAML::Scanner::SimpleKey>>::_Deque_impl_data" = type { ptr, i64, %"struct.std::_Deque_iterator.11", %"struct.std::_Deque_iterator.11" }
%"struct.std::_Deque_iterator.11" = type { ptr, ptr, ptr, ptr }
%"class.std::stack.12" = type { %"class.std::deque.13" }
%"class.std::deque.13" = type { %"class.std::_Deque_base.14" }
%"class.std::_Deque_base.14" = type { %"struct.std::_Deque_base<YAML::Scanner::IndentMarker *, std::allocator<YAML::Scanner::IndentMarker *>>::_Deque_impl" }
%"struct.std::_Deque_base<YAML::Scanner::IndentMarker *, std::allocator<YAML::Scanner::IndentMarker *>>::_Deque_impl" = type { %"struct.std::_Deque_base<YAML::Scanner::IndentMarker *, std::allocator<YAML::Scanner::IndentMarker *>>::_Deque_impl_data" }
%"struct.std::_Deque_base<YAML::Scanner::IndentMarker *, std::allocator<YAML::Scanner::IndentMarker *>>::_Deque_impl_data" = type { ptr, i64, %"struct.std::_Deque_iterator.18", %"struct.std::_Deque_iterator.18" }
%"struct.std::_Deque_iterator.18" = type { ptr, ptr, ptr, ptr }
%"class.YAML::ptr_vector" = type { %"class.std::vector" }
%"class.std::vector" = type { %"struct.std::_Vector_base" }
%"struct.std::_Vector_base" = type { %"struct.std::_Vector_base<std::unique_ptr<YAML::Scanner::IndentMarker>, std::allocator<std::unique_ptr<YAML::Scanner::IndentMarker>>>::_Vector_impl" }
%"struct.std::_Vector_base<std::unique_ptr<YAML::Scanner::IndentMarker>, std::allocator<std::unique_ptr<YAML::Scanner::IndentMarker>>>::_Vector_impl" = type { %"struct.std::_Vector_base<std::unique_ptr<YAML::Scanner::IndentMarker>, std::allocator<std::unique_ptr<YAML::Scanner::IndentMarker>>>::_Vector_impl_data" }
%"struct.std::_Vector_base<std::unique_ptr<YAML::Scanner::IndentMarker>, std::allocator<std::unique_ptr<YAML::Scanner::IndentMarker>>>::_Vector_impl_data" = type { ptr, ptr, ptr }
%"class.std::stack.22" = type { %"class.std::deque.23" }
%"class.std::deque.23" = type { %"class.std::_Deque_base.24" }
%"class.std::_Deque_base.24" = type { %"struct.std::_Deque_base<YAML::Scanner::FLOW_MARKER, std::allocator<YAML::Scanner::FLOW_MARKER>>::_Deque_impl" }
%"struct.std::_Deque_base<YAML::Scanner::FLOW_MARKER, std::allocator<YAML::Scanner::FLOW_MARKER>>::_Deque_impl" = type { %"struct.std::_Deque_base<YAML::Scanner::FLOW_MARKER, std::allocator<YAML::Scanner::FLOW_MARKER>>::_Deque_impl_data" }
%"struct.std::_Deque_base<YAML::Scanner::FLOW_MARKER, std::allocator<YAML::Scanner::FLOW_MARKER>>::_Deque_impl_data" = type { ptr, i64, %"struct.std::_Deque_iterator.28", %"struct.std::_Deque_iterator.28" }
%"struct.std::_Deque_iterator.28" = type { ptr, ptr, ptr, ptr }
%"struct.YAML::Token" = type <{ i32, i32, %"struct.YAML::Mark", [4 x i8], %"class.std::__cxx11::basic_string", %"class.std::vector.29", i32, [4 x i8] }>
%"class.std::__cxx11::basic_string" = type { %"struct.std::__cxx11::basic_string<char>::_Alloc_hider", i64, %union.anon }
%"struct.std::__cxx11::basic_string<char>::_Alloc_hider" = type { ptr }
%union.anon = type { i64, [8 x i8] }
%"class.std::vector.29" = type { %"struct.std::_Vector_base.30" }
%"struct.std::_Vector_base.30" = type { %"struct.std::_Vector_base<std::__cxx11::basic_string<char>, std::allocator<std::__cxx11::basic_string<char>>>::_Vector_impl" }
%"struct.std::_Vector_base<std::__cxx11::basic_string<char>, std::allocator<std::__cxx11::basic_string<char>>>::_Vector_impl" = type { %"struct.std::_Vector_base<std::__cxx11::basic_string<char>, std::allocator<std::__cxx11::basic_string<char>>>::_Vector_impl_data" }
%"struct.std::_Vector_base<std::__cxx11::basic_string<char>, std::allocator<std::__cxx11::basic_string<char>>>::_Vector_impl_data" = type { ptr, ptr, ptr }
%"struct.std::_Deque_iterator.59" = type { ptr, ptr, ptr, ptr }

@_ZTIN4YAML15ParserExceptionE = external constant ptr

; Function Attrs: mustprogress nounwind uwtable
define linkonce_odr void @_ZNSt15_Deque_iteratorIN4YAML5TokenERKS1_PS2_EC2IS_IS1_RS1_PS1_EvEERKT_(ptr noundef nonnull align 8 dereferenceable(32) %0, ptr noundef nonnull align 8 dereferenceable(32) %1) unnamed_addr #2 comdat align 2 {
  %3 = alloca ptr, align 8
  %4 = alloca ptr, align 8
  store ptr %0, ptr %3, align 8, !tbaa !469
  store ptr %1, ptr %4, align 8, !tbaa !199
  %5 = load ptr, ptr %3, align 8
  %6 = getelementptr inbounds nuw %"struct.std::_Deque_iterator.59", ptr %5, i32 0, i32 0
  %7 = load ptr, ptr %4, align 8, !tbaa !199
  %8 = getelementptr inbounds nuw %"struct.std::_Deque_iterator.5", ptr %7, i32 0, i32 0
  %9 = load ptr, ptr %8, align 8, !tbaa !212
  store ptr %9, ptr %6, align 8, !tbaa !471
  %10 = getelementptr inbounds nuw %"struct.std::_Deque_iterator.59", ptr %5, i32 0, i32 1
  %11 = load ptr, ptr %4, align 8, !tbaa !199
  %12 = getelementptr inbounds nuw %"struct.std::_Deque_iterator.5", ptr %11, i32 0, i32 1
  %13 = load ptr, ptr %12, align 8, !tbaa !214
  store ptr %13, ptr %10, align 8, !tbaa !473
  %14 = getelementptr inbounds nuw %"struct.std::_Deque_iterator.59", ptr %5, i32 0, i32 2
  %15 = load ptr, ptr %4, align 8, !tbaa !199
  %16 = getelementptr inbounds nuw %"struct.std::_Deque_iterator.5", ptr %15, i32 0, i32 2
  %17 = load ptr, ptr %16, align 8, !tbaa !213
  store ptr %17, ptr %14, align 8, !tbaa !474
  %18 = getelementptr inbounds nuw %"struct.std::_Deque_iterator.59", ptr %5, i32 0, i32 3
  %19 = load ptr, ptr %4, align 8, !tbaa !199
  %20 = getelementptr inbounds nuw %"struct.std::_Deque_iterator.5", ptr %19, i32 0, i32 3
  %21 = load ptr, ptr %20, align 8, !tbaa !209
  store ptr %21, ptr %18, align 8, !tbaa !475
  ret void
}

; Function Attrs: mustprogress nounwind uwtable
define linkonce_odr noundef nonnull align 8 dereferenceable(84) ptr @_ZNKSt15_Deque_iteratorIN4YAML5TokenERKS1_PS2_EdeEv(ptr noundef nonnull align 8 dereferenceable(32) %0) #2 comdat align 2 {
  %2 = alloca ptr, align 8
  store ptr %0, ptr %2, align 8, !tbaa !469
  %3 = load ptr, ptr %2, align 8
  %4 = getelementptr inbounds nuw %"struct.std::_Deque_iterator.59", ptr %3, i32 0, i32 0
  %5 = load ptr, ptr %4, align 8, !tbaa !471
  ret ptr %5
}

; Function Attrs: mustprogress nounwind uwtable
define linkonce_odr void @_ZNKSt5dequeIN4YAML5TokenESaIS1_EE5beginEv(ptr dead_on_unwind noalias writable sret(%"struct.std::_Deque_iterator.59") align 8 %0, ptr noundef nonnull align 8 dereferenceable(80) %1) #2 comdat align 2 {
  %3 = alloca ptr, align 8
  %4 = alloca ptr, align 8
  store ptr %0, ptr %3, align 8
  store ptr %1, ptr %4, align 8, !tbaa !197
  %5 = load ptr, ptr %4, align 8
  %6 = getelementptr inbounds nuw %"class.std::_Deque_base.1", ptr %5, i32 0, i32 0
  %7 = getelementptr inbounds nuw %"struct.std::_Deque_base<YAML::Token, std::allocator<YAML::Token>>::_Deque_impl_data", ptr %6, i32 0, i32 2
  call void @_ZNSt15_Deque_iteratorIN4YAML5TokenERKS1_PS2_EC2IS_IS1_RS1_PS1_EvEERKT_(ptr noundef nonnull align 8 dereferenceable(32) %0, ptr noundef nonnull align 8 dereferenceable(32) %7) #11
  ret void
}

; Function Attrs: mustprogress nounwind uwtable
define linkonce_odr noundef zeroext i1 @_ZSteqRKSt15_Deque_iteratorIN4YAML5TokenERS1_PS1_ES6_(ptr noundef nonnull align 8 dereferenceable(32) %0, ptr noundef nonnull align 8 dereferenceable(32) %1) #2 comdat {
  %3 = alloca ptr, align 8
  %4 = alloca ptr, align 8
  store ptr %0, ptr %3, align 8, !tbaa !199
  store ptr %1, ptr %4, align 8, !tbaa !199
  %5 = load ptr, ptr %3, align 8, !tbaa !199
  %6 = getelementptr inbounds nuw %"struct.std::_Deque_iterator.5", ptr %5, i32 0, i32 0
  %7 = load ptr, ptr %6, align 8, !tbaa !212
  %8 = load ptr, ptr %4, align 8, !tbaa !199
  %9 = getelementptr inbounds nuw %"struct.std::_Deque_iterator.5", ptr %8, i32 0, i32 0
  %10 = load ptr, ptr %9, align 8, !tbaa !212
  %11 = icmp eq ptr %7, %10
  ret i1 %11
}

; Function Attrs: mustprogress nounwind uwtable
define linkonce_odr noundef nonnull align 8 dereferenceable(84) ptr @_ZNKSt5dequeIN4YAML5TokenESaIS1_EE5frontEv(ptr noundef nonnull align 8 dereferenceable(80) %0) #2 comdat align 2 {
  %2 = alloca ptr, align 8
  %3 = alloca %"struct.std::_Deque_iterator.59", align 8
  store ptr %0, ptr %2, align 8, !tbaa !197
  %4 = load ptr, ptr %2, align 8
  call void @llvm.lifetime.start.p0(i64 32, ptr %3) #11
  call void @_ZNKSt5dequeIN4YAML5TokenESaIS1_EE5beginEv(ptr dead_on_unwind writable sret(%"struct.std::_Deque_iterator.59") align 8 %3, ptr noundef nonnull align 8 dereferenceable(80) %4) #11
  %5 = call noundef nonnull align 8 dereferenceable(84) ptr @_ZNKSt15_Deque_iteratorIN4YAML5TokenERKS1_PS2_EdeEv(ptr noundef nonnull align 8 dereferenceable(32) %3) #11
  call void @llvm.lifetime.end.p0(i64 32, ptr %3) #11
  ret ptr %5
}

; Function Attrs: mustprogress nounwind uwtable
define linkonce_odr noundef zeroext i1 @_ZNKSt5dequeIN4YAML5TokenESaIS1_EE5emptyEv(ptr noundef nonnull align 8 dereferenceable(80) %0) #2 comdat align 2 {
  %2 = alloca ptr, align 8
  store ptr %0, ptr %2, align 8, !tbaa !197
  %3 = load ptr, ptr %2, align 8
  %4 = getelementptr inbounds nuw %"class.std::_Deque_base.1", ptr %3, i32 0, i32 0
  %5 = getelementptr inbounds nuw %"struct.std::_Deque_base<YAML::Token, std::allocator<YAML::Token>>::_Deque_impl_data", ptr %4, i32 0, i32 3
  %6 = getelementptr inbounds nuw %"class.std::_Deque_base.1", ptr %3, i32 0, i32 0
  %7 = getelementptr inbounds nuw %"struct.std::_Deque_base<YAML::Token, std::allocator<YAML::Token>>::_Deque_impl_data", ptr %6, i32 0, i32 2
  %8 = call noundef zeroext i1 @_ZSteqRKSt15_Deque_iteratorIN4YAML5TokenERS1_PS1_ES6_(ptr noundef nonnull align 8 dereferenceable(32) %5, ptr noundef nonnull align 8 dereferenceable(32) %7) #11
  ret i1 %8
}

; Function Attrs: mustprogress nounwind uwtable
define linkonce_odr void @_ZN4YAML4MarkC2Eiii(ptr noundef nonnull align 4 dereferenceable(12) %0, i32 noundef %1, i32 noundef %2, i32 noundef %3) unnamed_addr #2 comdat align 2 {
  %5 = alloca ptr, align 8
  %6 = alloca i32, align 4
  %7 = alloca i32, align 4
  %8 = alloca i32, align 4
  store ptr %0, ptr %5, align 8, !tbaa !120
  store i32 %1, ptr %6, align 4, !tbaa !96
  store i32 %2, ptr %7, align 4, !tbaa !96
  store i32 %3, ptr %8, align 4, !tbaa !96
  %9 = load ptr, ptr %5, align 8
  %10 = getelementptr inbounds nuw %"struct.YAML::Mark", ptr %9, i32 0, i32 0
  %11 = load i32, ptr %6, align 4, !tbaa !96
  store i32 %11, ptr %10, align 4, !tbaa !252
  %12 = getelementptr inbounds nuw %"struct.YAML::Mark", ptr %9, i32 0, i32 1
  %13 = load i32, ptr %7, align 4, !tbaa !96
  store i32 %13, ptr %12, align 4, !tbaa !250
  %14 = getelementptr inbounds nuw %"struct.YAML::Mark", ptr %9, i32 0, i32 2
  %15 = load i32, ptr %8, align 4, !tbaa !96
  store i32 %15, ptr %14, align 4, !tbaa !251
  ret void
}

; Function Attrs: mustprogress nounwind uwtable
define linkonce_odr noundef nonnull align 8 dereferenceable(84) ptr @_ZNKSt5queueIN4YAML5TokenESt5dequeIS1_SaIS1_EEE5frontEv(ptr noundef nonnull align 8 dereferenceable(80) %0) #2 comdat align 2 {
  %2 = alloca ptr, align 8
  store ptr %0, ptr %2, align 8, !tbaa !67
  %3 = load ptr, ptr %2, align 8
  %4 = getelementptr inbounds nuw %"class.std::queue", ptr %3, i32 0, i32 0
  %5 = call noundef nonnull align 8 dereferenceable(84) ptr @_ZNKSt5dequeIN4YAML5TokenESaIS1_EE5frontEv(ptr noundef nonnull align 8 dereferenceable(80) %4) #11
  ret ptr %5
}

; Function Attrs: mustprogress nounwind uwtable
define linkonce_odr noundef zeroext i1 @_ZNKSt5queueIN4YAML5TokenESt5dequeIS1_SaIS1_EEE5emptyEv(ptr noundef nonnull align 8 dereferenceable(80) %0) #2 comdat align 2 {
  %2 = alloca ptr, align 8
  store ptr %0, ptr %2, align 8, !tbaa !67
  %3 = load ptr, ptr %2, align 8
  %4 = getelementptr inbounds nuw %"class.std::queue", ptr %3, i32 0, i32 0
  %5 = call noundef zeroext i1 @_ZNKSt5dequeIN4YAML5TokenESaIS1_EE5emptyEv(ptr noundef nonnull align 8 dereferenceable(80) %4) #11
  ret i1 %5
}

; Function Attrs: mustprogress uwtable
define linkonce_odr { i64, i32 } @_ZN4YAML4Mark9null_markEv() #0 comdat align 2 {
  %1 = alloca %"struct.YAML::Mark", align 4
  %2 = alloca { i64, i32 }, align 8
  call void @_ZN4YAML4MarkC2Eiii(ptr noundef nonnull align 4 dereferenceable(12) %1, i32 noundef -1, i32 noundef -1, i32 noundef -1)
  call void @llvm.memcpy.p0.p0.i64(ptr align 8 %2, ptr align 4 %1, i64 12, i1 false)
  %3 = load { i64, i32 }, ptr %2, align 8
  ret { i64, i32 } %3
}

; Function Attrs: mustprogress uwtable
define void @_ZNK4YAML7Scanner20ThrowParserExceptionERKNSt7__cxx1112basic_stringIcSt11char_traitsIcESaIcEEE(ptr noundef nonnull align 8 dereferenceable(488) %0, ptr noundef nonnull align 8 dereferenceable(32) %1) #0 align 2 personality ptr @__gxx_personality_v0 {
  %3 = alloca ptr, align 8
  %4 = alloca ptr, align 8
  %5 = alloca %"struct.YAML::Mark", align 4
  %6 = alloca { i64, i32 }, align 8
  %7 = alloca ptr, align 8
  %8 = alloca ptr, align 8
  %9 = alloca i32, align 4
  store ptr %0, ptr %3, align 8, !tbaa !3
  store ptr %1, ptr %4, align 8, !tbaa !116
  %10 = load ptr, ptr %3, align 8
  call void @llvm.lifetime.start.p0(i64 12, ptr %5) #11
  %11 = call { i64, i32 } @_ZN4YAML4Mark9null_markEv()
  store { i64, i32 } %11, ptr %6, align 8
  call void @llvm.memcpy.p0.p0.i64(ptr align 4 %5, ptr align 8 %6, i64 12, i1 false)
  %12 = getelementptr inbounds nuw %"class.YAML::Scanner", ptr %10, i32 0, i32 1
  %13 = call noundef zeroext i1 @_ZNKSt5queueIN4YAML5TokenESt5dequeIS1_SaIS1_EEE5emptyEv(ptr noundef nonnull align 8 dereferenceable(80) %12)
  br i1 %13, label %19, label %14

14:                                               ; preds = %2
  call void @llvm.lifetime.start.p0(i64 8, ptr %7) #11
  %15 = getelementptr inbounds nuw %"class.YAML::Scanner", ptr %10, i32 0, i32 1
  %16 = call noundef nonnull align 8 dereferenceable(84) ptr @_ZNKSt5queueIN4YAML5TokenESt5dequeIS1_SaIS1_EEE5frontEv(ptr noundef nonnull align 8 dereferenceable(80) %15)
  store ptr %16, ptr %7, align 8, !tbaa !77
  %17 = load ptr, ptr %7, align 8, !tbaa !77
  %18 = getelementptr inbounds nuw %"struct.YAML::Token", ptr %17, i32 0, i32 2
  call void @llvm.memcpy.p0.p0.i64(ptr align 4 %5, ptr align 8 %18, i64 12, i1 false), !tbaa.struct !95
  call void @llvm.lifetime.end.p0(i64 8, ptr %7) #11
  br label %19

19:                                               ; preds = %14, %2
  %20 = call ptr @__cxa_allocate_exception(i64 64) #11
  %21 = load ptr, ptr %4, align 8, !tbaa !116
  invoke void @_ZN4YAML15ParserExceptionC2ERKNS_4MarkERKNSt7__cxx1112basic_stringIcSt11char_traitsIcESaIcEEE(ptr noundef nonnull align 8 dereferenceable(64) %20, ptr noundef nonnull align 4 dereferenceable(12) %5, ptr noundef nonnull align 8 dereferenceable(32) %21)
          to label %22 unwind label %23

22:                                               ; preds = %19
  call void @__cxa_throw(ptr %20, ptr @_ZTIN4YAML15ParserExceptionE, ptr @_ZN4YAML15ParserExceptionD1Ev) #16
  unreachable

23:                                               ; preds = %19
  %24 = landingpad { ptr, i32 }
          cleanup
  %25 = extractvalue { ptr, i32 } %24, 0
  store ptr %25, ptr %8, align 8
  %26 = extractvalue { ptr, i32 } %24, 1
  store i32 %26, ptr %9, align 4
  call void @__cxa_free_exception(ptr %20) #11
  call void @llvm.lifetime.end.p0(i64 12, ptr %5) #11
  br label %27

27:                                               ; preds = %23
  %28 = load ptr, ptr %8, align 8
  %29 = load i32, ptr %9, align 4
  %30 = insertvalue { ptr, i32 } poison, ptr %28, 0
  %31 = insertvalue { ptr, i32 } %30, i32 %29, 1
  resume { ptr, i32 } %31
}