; Function Attrs: mustprogress noreturn uwtable
define void @_ZNK4YAML7Scanner20ThrowParserExceptionERKNSt7__cxx1112basic_stringIcSt11char_traitsIcESaIcEEE(ptr noundef nonnull readonly align 8 captures(none) dereferenceable(488) %0, ptr noundef nonnull align 8 dereferenceable(32) %1) local_unnamed_addr #14 align 2 personality ptr @__gxx_personality_v0 {
  %3 = alloca %"struct.YAML::Mark", align 8
  call void @llvm.lifetime.start.p0(i64 12, ptr nonnull %3) #23
  store i64 -1, ptr %3, align 8
  %.sroa.2.0..sroa_idx = getelementptr inbounds nuw i8, ptr %3, i64 8
  store i32 -1, ptr %.sroa.2.0..sroa_idx, align 8
  %4 = getelementptr inbounds nuw i8, ptr %0, i64 184
  %5 = getelementptr inbounds nuw i8, ptr %0, i64 152
  %6 = load ptr, ptr %4, align 8, !tbaa !42
  %7 = load ptr, ptr %5, align 8, !tbaa !42
  %8 = icmp eq ptr %6, %7
  br i1 %8, label %11, label %9

9:                                                ; preds = %2
  %10 = getelementptr inbounds nuw i8, ptr %7, i64 8
  call void @llvm.memcpy.p0.p0.i64(ptr noundef nonnull align 8 dereferenceable(12) %3, ptr noundef nonnull align 8 dereferenceable(12) %10, i64 12, i1 false), !tbaa.struct !188
  br label %11

11:                                               ; preds = %9, %2
  %12 = tail call ptr @__cxa_allocate_exception(i64 64) #23
  invoke void @_ZN4YAML15ParserExceptionC2ERKNS_4MarkERKNSt7__cxx1112basic_stringIcSt11char_traitsIcESaIcEEE(ptr noundef nonnull align 8 dereferenceable(64) %12, ptr noundef nonnull align 4 dereferenceable(12) %3, ptr noundef nonnull align 8 dereferenceable(32) %1)
          to label %13 unwind label %14

13:                                               ; preds = %11
  call void @__cxa_throw(ptr nonnull %12, ptr nonnull @_ZTIN4YAML15ParserExceptionE, ptr nonnull @_ZN4YAML15ParserExceptionD1Ev) #25
  unreachable

14:                                               ; preds = %11
  %15 = landingpad { ptr, i32 }
          cleanup
  call void @__cxa_free_exception(ptr nonnull %12) #23
  call void @llvm.lifetime.end.p0(i64 12, ptr nonnull %3) #23
  resume { ptr, i32 } %15
}